target datalayout = "e-m:e-p270:32:32-p271:32:32-p272:64:64-i64:64-i128:128-f80:128-n8:16:32:64-S128"
target triple = "x86_64-pc-linux-gnu"

%"class.datalog::mk_synchronize" = type { %"class.datalog::rule_transformer::plugin", ptr, ptr, ptr, %class.scoped_ptr, %class.scoped_ptr.0, %class.map }
%"class.datalog::rule_transformer::plugin" = type { ptr, i32, i8, ptr }
%class.scoped_ptr = type { ptr }
%class.scoped_ptr.0 = type { ptr }
%class.map = type { %class.table2map }
%class.table2map = type { %class.core_hashtable }
%class.core_hashtable = type <{ ptr, i32, i32, i32, [4 x i8] }>
%class.vector.10 = type { ptr }
%class.ptr_vector.100 = type { %class.vector.101 }
%class.vector.101 = type { ptr }
%class.app = type { %class.expr, ptr, i32, %struct.app_flags, [0 x ptr] }
%class.expr = type { %class.ast }
%class.ast = type { i32, i32, i32, i32 }
%struct.app_flags = type <{ i16, i8, i8 }>
%"class.datalog::rule_stratifier" = type { ptr, %class.ptr_vector.134, %class.obj_map.136, %class.ptr_vector.100, %class.ptr_vector.100, %class.obj_map.136, %class.ptr_vector.134, %class.obj_map.136, i32, i32 }
%class.ptr_vector.134 = type { %class.vector.135 }
%class.vector.135 = type { ptr }
%class.obj_map.136 = type { %class.core_hashtable.137 }
%class.core_hashtable.137 = type <{ ptr, i32, i32, i32, [4 x i8] }>

; Function Attrs: mustprogress nounwind uwtable
define linkonce_odr hidden noundef i32 @_ZNK6vectorIP13obj_hashtableI9func_declELb0EjE8capacityEv(ptr noundef nonnull align 8 dereferenceable(8) %0) #5 comdat align 2 {
  %2 = alloca i32, align 4
  %3 = alloca ptr, align 8
  store ptr %0, ptr %3, align 8, !tbaa !254
  %4 = load ptr, ptr %3, align 8
  %5 = getelementptr inbounds nuw %class.vector.135, ptr %4, i32 0, i32 0
  %6 = load ptr, ptr %5, align 8, !tbaa !256
  %7 = icmp eq ptr %6, null
  br i1 %7, label %8, label %9

8:                                                ; preds = %1
  store i32 0, ptr %2, align 4
  br label %14

9:                                                ; preds = %1
  %10 = getelementptr inbounds nuw %class.vector.135, ptr %4, i32 0, i32 0
  %11 = load ptr, ptr %10, align 8, !tbaa !256
  %12 = getelementptr inbounds i32, ptr %11, i64 -2
  %13 = load i32, ptr %12, align 4, !tbaa !10
  store i32 %13, ptr %2, align 4
  br label %14

14:                                               ; preds = %9, %8
  %15 = load i32, ptr %2, align 4
  ret i32 %15
}

; Function Attrs: mustprogress nounwind uwtable
define linkonce_odr hidden void @_ZN6vectorIP13obj_hashtableI9func_declELb0EjE6shrinkEj(ptr noundef nonnull align 8 dereferenceable(8) %0, i32 noundef %1) #5 comdat align 2 {
  %3 = alloca ptr, align 8
  %4 = alloca i32, align 4
  store ptr %0, ptr %3, align 8, !tbaa !254
  store i32 %1, ptr %4, align 4, !tbaa !10
  %5 = load ptr, ptr %3, align 8
  %6 = getelementptr inbounds nuw %class.vector.135, ptr %5, i32 0, i32 0
  %7 = load ptr, ptr %6, align 8, !tbaa !256
  %8 = icmp ne ptr %7, null
  br i1 %8, label %9, label %14

9:                                                ; preds = %2
  %10 = load i32, ptr %4, align 4, !tbaa !10
  %11 = getelementptr inbounds nuw %class.vector.135, ptr %5, i32 0, i32 0
  %12 = load ptr, ptr %11, align 8, !tbaa !256
  %13 = getelementptr inbounds i32, ptr %12, i64 -1
  store i32 %10, ptr %13, align 4, !tbaa !10
  br label %15

14:                                               ; preds = %2
  br label %15

15:                                               ; preds = %14, %9
  ret void
}

; Function Attrs: mustprogress nounwind uwtable
define linkonce_odr hidden noundef i32 @_ZNK6vectorIP13obj_hashtableI9func_declELb0EjE4sizeEv(ptr noundef nonnull align 8 dereferenceable(8) %0) #5 comdat align 2 {
  %2 = alloca i32, align 4
  %3 = alloca ptr, align 8
  store ptr %0, ptr %3, align 8, !tbaa !254
  %4 = load ptr, ptr %3, align 8
  %5 = getelementptr inbounds nuw %class.vector.135, ptr %4, i32 0, i32 0
  %6 = load ptr, ptr %5, align 8, !tbaa !256
  %7 = icmp eq ptr %6, null
  br i1 %7, label %8, label %9

8:                                                ; preds = %1
  store i32 0, ptr %2, align 4
  br label %14

9:                                                ; preds = %1
  %10 = getelementptr inbounds nuw %class.vector.135, ptr %4, i32 0, i32 0
  %11 = load ptr, ptr %10, align 8, !tbaa !256
  %12 = getelementptr inbounds i32, ptr %11, i64 -1
  %13 = load i32, ptr %12, align 4, !tbaa !10
  store i32 %13, ptr %2, align 4
  br label %14

14:                                               ; preds = %9, %8
  %15 = load i32, ptr %2, align 4
  ret i32 %15
}

; Function Attrs: mustprogress nounwind uwtable
define linkonce_odr hidden void @_ZN6vectorIP13obj_hashtableI9func_declELb0EjEC2Ev(ptr noundef nonnull align 8 dereferenceable(8) %0) unnamed_addr #5 comdat align 2 {
  %2 = alloca ptr, align 8
  store ptr %0, ptr %2, align 8, !tbaa !254
  %3 = load ptr, ptr %2, align 8
  %4 = getelementptr inbounds nuw %class.vector.135, ptr %3, i32 0, i32 0
  store ptr null, ptr %4, align 8, !tbaa !256
  ret void
}

; Function Attrs: mustprogress nounwind uwtable
define linkonce_odr hidden noundef nonnull align 8 dereferenceable(8) ptr @_ZN6vectorIP13obj_hashtableI9func_declELb0EjEixEj(ptr noundef nonnull align 8 dereferenceable(8) %0, i32 noundef %1) #5 comdat align 2 {
  %3 = alloca ptr, align 8
  %4 = alloca i32, align 4
  store ptr %0, ptr %3, align 8, !tbaa !254
  store i32 %1, ptr %4, align 4, !tbaa !10
  %5 = load ptr, ptr %3, align 8
  %6 = getelementptr inbounds nuw %class.vector.135, ptr %5, i32 0, i32 0
  %7 = load ptr, ptr %6, align 8, !tbaa !256
  %8 = load i32, ptr %4, align 4, !tbaa !10
  %9 = zext i32 %8 to i64
  %10 = getelementptr inbounds nuw ptr, ptr %7, i64 %9
  ret ptr %10
}

; Function Attrs: mustprogress nounwind uwtable
define linkonce_odr hidden noundef nonnull align 8 dereferenceable(8) ptr @_ZNK6vectorIP13obj_hashtableI9func_declELb0EjEixEj(ptr noundef nonnull align 8 dereferenceable(8) %0, i32 noundef %1) #5 comdat align 2 {
  %3 = alloca ptr, align 8
  %4 = alloca i32, align 4
  store ptr %0, ptr %3, align 8, !tbaa !254
  store i32 %1, ptr %4, align 4, !tbaa !10
  %5 = load ptr, ptr %3, align 8
  %6 = getelementptr inbounds nuw %class.vector.135, ptr %5, i32 0, i32 0
  %7 = load ptr, ptr %6, align 8, !tbaa !256
  %8 = load i32, ptr %4, align 4, !tbaa !10
  %9 = zext i32 %8 to i64
  %10 = getelementptr inbounds nuw ptr, ptr %7, i64 %9
  ret ptr %10
}

; Function Attrs: mustprogress nounwind uwtable
define linkonce_odr hidden noundef ptr @_ZNK3app8get_declEv(ptr noundef nonnull align 8 dereferenceable(32) %0) #5 comdat align 2 {
  %2 = alloca ptr, align 8
  store ptr %0, ptr %2, align 8, !tbaa !248
  %3 = load ptr, ptr %2, align 8
  %4 = getelementptr inbounds nuw %class.app, ptr %3, i32 0, i32 1
  %5 = load ptr, ptr %4, align 8, !tbaa !249
  ret ptr %5
}

; Function Attrs: mustprogress nounwind uwtable
define linkonce_odr hidden noundef nonnull align 8 dereferenceable(8) ptr @_ZN6vectorIP3appLb0EjEixEj(ptr noundef nonnull align 8 dereferenceable(8) %0, i32 noundef %1) #5 comdat align 2 {
  %3 = alloca ptr, align 8
  %4 = alloca i32, align 4
  store ptr %0, ptr %3, align 8, !tbaa !267
  store i32 %1, ptr %4, align 4, !tbaa !10
  %5 = load ptr, ptr %3, align 8
  %6 = getelementptr inbounds nuw %class.vector.10, ptr %5, i32 0, i32 0
  %7 = load ptr, ptr %6, align 8, !tbaa !269
  %8 = load i32, ptr %4, align 4, !tbaa !10
  %9 = zext i32 %8 to i64
  %10 = getelementptr inbounds nuw ptr, ptr %7, i64 %9
  ret ptr %10
}

; Function Attrs: mustprogress nounwind uwtable
define linkonce_odr hidden noundef nonnull align 8 dereferenceable(8) ptr @_ZNK7datalog15rule_stratifier10get_stratsEv(ptr noundef nonnull align 8 dereferenceable(120) %0) #5 comdat align 2 {
  %2 = alloca ptr, align 8
  store ptr %0, ptr %2, align 8, !tbaa !230
  %3 = load ptr, ptr %2, align 8
  %4 = getelementptr inbounds nuw %"class.datalog::rule_stratifier", ptr %3, i32 0, i32 1
  ret ptr %4
}

; Function Attrs: mustprogress nounwind uwtable
define linkonce_odr hidden noundef ptr @_ZNK10scoped_ptrIN7datalog15rule_stratifierEEptEv(ptr noundef nonnull align 8 dereferenceable(8) %0) #5 comdat align 2 {
  %2 = alloca ptr, align 8
  store ptr %0, ptr %2, align 8, !tbaa !228
  %3 = load ptr, ptr %2, align 8
  %4 = getelementptr inbounds nuw %class.scoped_ptr.0, ptr %3, i32 0, i32 0
  %5 = load ptr, ptr %4, align 8, !tbaa !231
  ret ptr %5
}

; Function Attrs: mustprogress uwtable
define linkonce_odr hidden void @_ZN6vectorIP13obj_hashtableI9func_declELb0EjE6resizeEj(ptr noundef nonnull align 8 dereferenceable(8) %0, i32 noundef %1) #4 comdat align 2 {
  %3 = alloca ptr, align 8
  %4 = alloca i32, align 4
  %5 = alloca i32, align 4
  %6 = alloca i32, align 4
  %7 = alloca ptr, align 8
  %8 = alloca ptr, align 8
  store ptr %0, ptr %3, align 8, !tbaa !254
  store i32 %1, ptr %4, align 4, !tbaa !10
  %9 = load ptr, ptr %3, align 8
  call void @llvm.lifetime.start.p0(i64 4, ptr %5) #3
  %10 = call noundef i32 @_ZNK6vectorIP13obj_hashtableI9func_declELb0EjE4sizeEv(ptr noundef nonnull align 8 dereferenceable(8) %9)
  store i32 %10, ptr %5, align 4, !tbaa !10
  %11 = load i32, ptr %4, align 4, !tbaa !10
  %12 = load i32, ptr %5, align 4, !tbaa !10
  %13 = icmp ule i32 %11, %12
  br i1 %13, label %14, label %16

14:                                               ; preds = %2
  %15 = load i32, ptr %4, align 4, !tbaa !10
  call void @_ZN6vectorIP13obj_hashtableI9func_declELb0EjE6shrinkEj(ptr noundef nonnull align 8 dereferenceable(8) %9, i32 noundef %15)
  store i32 1, ptr %6, align 4
  br label %47

16:                                               ; preds = %2
  br label %17

17:                                               ; preds = %21, %16
  %18 = load i32, ptr %4, align 4, !tbaa !10
  %19 = call noundef i32 @_ZNK6vectorIP13obj_hashtableI9func_declELb0EjE8capacityEv(ptr noundef nonnull align 8 dereferenceable(8) %9)
  %20 = icmp ugt i32 %18, %19
  br i1 %20, label %21, label %22

21:                                               ; preds = %17
  call void @_ZN6vectorIP13obj_hashtableI9func_declELb0EjE13expand_vectorEv(ptr noundef nonnull align 8 dereferenceable(8) %9)
  br label %17, !llvm.loop !270

22:                                               ; preds = %17
  %23 = load i32, ptr %4, align 4, !tbaa !10
  %24 = getelementptr inbounds nuw %class.vector.135, ptr %9, i32 0, i32 0
  %25 = load ptr, ptr %24, align 8, !tbaa !256
  %26 = getelementptr inbounds i32, ptr %25, i64 -1
  store i32 %23, ptr %26, align 4, !tbaa !10
  call void @llvm.lifetime.start.p0(i64 8, ptr %7) #3
  %27 = getelementptr inbounds nuw %class.vector.135, ptr %9, i32 0, i32 0
  %28 = load ptr, ptr %27, align 8, !tbaa !256
  %29 = load i32, ptr %5, align 4, !tbaa !10
  %30 = zext i32 %29 to i64
  %31 = getelementptr inbounds nuw ptr, ptr %28, i64 %30
  store ptr %31, ptr %7, align 8, !tbaa !271
  call void @llvm.lifetime.start.p0(i64 8, ptr %8) #3
  %32 = getelementptr inbounds nuw %class.vector.135, ptr %9, i32 0, i32 0
  %33 = load ptr, ptr %32, align 8, !tbaa !256
  %34 = load i32, ptr %4, align 4, !tbaa !10
  %35 = zext i32 %34 to i64
  %36 = getelementptr inbounds nuw ptr, ptr %33, i64 %35
  store ptr %36, ptr %8, align 8, !tbaa !271
  br label %37

37:                                               ; preds = %43, %22
  %38 = load ptr, ptr %7, align 8, !tbaa !271
  %39 = load ptr, ptr %8, align 8, !tbaa !271
  %40 = icmp ne ptr %38, %39
  br i1 %40, label %41, label %46

41:                                               ; preds = %37
  %42 = load ptr, ptr %7, align 8, !tbaa !271
  store ptr null, ptr %42, align 8, !tbaa !242
  br label %43

43:                                               ; preds = %41
  %44 = load ptr, ptr %7, align 8, !tbaa !271
  %45 = getelementptr inbounds nuw ptr, ptr %44, i32 1
  store ptr %45, ptr %7, align 8, !tbaa !271
  br label %37, !llvm.loop !272

46:                                               ; preds = %37
  call void @llvm.lifetime.end.p0(i64 8, ptr %8) #3
  call void @llvm.lifetime.end.p0(i64 8, ptr %7) #3
  store i32 0, ptr %6, align 4
  br label %47

47:                                               ; preds = %46, %14
  call void @llvm.lifetime.end.p0(i64 4, ptr %5) #3
  %48 = load i32, ptr %6, align 4
  switch i32 %48, label %50 [
    i32 0, label %49
    i32 1, label %49
  ]

49:                                               ; preds = %47, %47
  ret void

50:                                               ; preds = %47
  unreachable
}

; Function Attrs: mustprogress nounwind uwtable
define linkonce_odr hidden void @_ZN10ptr_vectorI13obj_hashtableI9func_declEEC2Ev(ptr noundef nonnull align 8 dereferenceable(8) %0) unnamed_addr #5 comdat align 2 {
  %2 = alloca ptr, align 8
  store ptr %0, ptr %2, align 8, !tbaa !240
  %3 = load ptr, ptr %2, align 8
  call void @_ZN6vectorIP13obj_hashtableI9func_declELb0EjEC2Ev(ptr noundef nonnull align 8 dereferenceable(8) %3) #3
  ret void
}

; Function Attrs: mustprogress nounwind uwtable
define linkonce_odr hidden noundef i32 @_ZNK6vectorIP3appLb0EjE4sizeEv(ptr noundef nonnull align 8 dereferenceable(8) %0) #5 comdat align 2 {
  %2 = alloca i32, align 4
  %3 = alloca ptr, align 8
  store ptr %0, ptr %3, align 8, !tbaa !267
  %4 = load ptr, ptr %3, align 8
  %5 = getelementptr inbounds nuw %class.vector.10, ptr %4, i32 0, i32 0
  %6 = load ptr, ptr %5, align 8, !tbaa !269
  %7 = icmp eq ptr %6, null
  br i1 %7, label %8, label %9

8:                                                ; preds = %1
  store i32 0, ptr %2, align 4
  br label %14

9:                                                ; preds = %1
  %10 = getelementptr inbounds nuw %class.vector.10, ptr %4, i32 0, i32 0
  %11 = load ptr, ptr %10, align 8, !tbaa !269
  %12 = getelementptr inbounds i32, ptr %11, i64 -1
  %13 = load i32, ptr %12, align 4, !tbaa !10
  store i32 %13, ptr %2, align 4
  br label %14

14:                                               ; preds = %9, %8
  %15 = load i32, ptr %2, align 4
  ret i32 %15
}

; Function Attrs: mustprogress uwtable
define hidden void @_ZN7datalog14mk_synchronize16add_merged_declsER10ptr_vectorI3appE(ptr dead_on_unwind noalias writable sret(%class.ptr_vector.134) align 8 %0, ptr noundef nonnull align 8 dereferenceable(88) %1, ptr noundef nonnull align 8 dereferenceable(8) %2) #4 align 2 personality ptr @__gxx_personality_v0 {
  %4 = alloca ptr, align 8
  %5 = alloca ptr, align 8
  %6 = alloca ptr, align 8
  %7 = alloca i32, align 4
  %8 = alloca i1, align 1
  %9 = alloca ptr, align 8
  %10 = alloca i32, align 4
  %11 = alloca ptr, align 8
  %12 = alloca i32, align 4
  %13 = alloca i32, align 4
  store ptr %0, ptr %4, align 8
  store ptr %1, ptr %5, align 8, !tbaa !3
  store ptr %2, ptr %6, align 8, !tbaa !263
  %14 = load ptr, ptr %5, align 8
  call void @llvm.lifetime.start.p0(i64 4, ptr %7) #3
  %15 = load ptr, ptr %6, align 8, !tbaa !263
  %16 = call noundef i32 @_ZNK6vectorIP3appLb0EjE4sizeEv(ptr noundef nonnull align 8 dereferenceable(8) %15)
  store i32 %16, ptr %7, align 4, !tbaa !10
  store i1 false, ptr %8, align 1
  call void @_ZN10ptr_vectorI13obj_hashtableI9func_declEEC2Ev(ptr noundef nonnull align 8 dereferenceable(8) %0) #3
  %17 = load i32, ptr %7, align 4, !tbaa !10
  invoke void @_ZN6vectorIP13obj_hashtableI9func_declELb0EjE6resizeEj(ptr noundef nonnull align 8 dereferenceable(8) %0, i32 noundef %17)
          to label %18 unwind label %29

18:                                               ; preds = %3
  call void @llvm.lifetime.start.p0(i64 8, ptr %11) #3
  %19 = getelementptr inbounds nuw %"class.datalog::mk_synchronize", ptr %14, i32 0, i32 5
  %20 = invoke noundef ptr @_ZNK10scoped_ptrIN7datalog15rule_stratifierEEptEv(ptr noundef nonnull align 8 dereferenceable(8) %19)
          to label %21 unwind label %33

21:                                               ; preds = %18
  %22 = invoke noundef nonnull align 8 dereferenceable(8) ptr @_ZNK7datalog15rule_stratifier10get_stratsEv(ptr noundef nonnull align 8 dereferenceable(120) %20)
          to label %23 unwind label %33

23:                                               ; preds = %21
  store ptr %22, ptr %11, align 8, !tbaa !240
  call void @llvm.lifetime.start.p0(i64 4, ptr %12) #3
  store i32 0, ptr %12, align 4, !tbaa !10
  br label %24

24:                                               ; preds = %58, %23
  %25 = load i32, ptr %12, align 4, !tbaa !10
  %26 = load i32, ptr %7, align 4, !tbaa !10
  %27 = icmp ult i32 %25, %26
  br i1 %27, label %37, label %28

28:                                               ; preds = %24
  call void @llvm.lifetime.end.p0(i64 4, ptr %12) #3
  br label %65

29:                                               ; preds = %3
  %30 = landingpad { ptr, i32 }
          cleanup
  %31 = extractvalue { ptr, i32 } %30, 0
  store ptr %31, ptr %9, align 8
  %32 = extractvalue { ptr, i32 } %30, 1
  store i32 %32, ptr %10, align 4
  br label %70

33:                                               ; preds = %21, %18
  %34 = landingpad { ptr, i32 }
          cleanup
  %35 = extractvalue { ptr, i32 } %34, 0
  store ptr %35, ptr %9, align 8
  %36 = extractvalue { ptr, i32 } %34, 1
  store i32 %36, ptr %10, align 4
  br label %67

37:                                               ; preds = %24
  call void @llvm.lifetime.start.p0(i64 4, ptr %13) #3
  %38 = getelementptr inbounds nuw %"class.datalog::mk_synchronize", ptr %14, i32 0, i32 5
  %39 = invoke noundef ptr @_ZNK10scoped_ptrIN7datalog15rule_stratifierEEptEv(ptr noundef nonnull align 8 dereferenceable(8) %38)
          to label %40 unwind label %61

40:                                               ; preds = %37
  %41 = load ptr, ptr %6, align 8, !tbaa !263
  %42 = load i32, ptr %12, align 4, !tbaa !10
  %43 = invoke noundef nonnull align 8 dereferenceable(8) ptr @_ZN6vectorIP3appLb0EjEixEj(ptr noundef nonnull align 8 dereferenceable(8) %41, i32 noundef %42)
          to label %44 unwind label %61

44:                                               ; preds = %40
  %45 = load ptr, ptr %43, align 8, !tbaa !248
  %46 = invoke noundef ptr @_ZNK3app8get_declEv(ptr noundef nonnull align 8 dereferenceable(32) %45)
          to label %47 unwind label %61

47:                                               ; preds = %44
  %48 = invoke noundef i32 @_ZNK7datalog15rule_stratifier19get_predicate_stratEP9func_decl(ptr noundef nonnull align 8 dereferenceable(120) %39, ptr noundef %46)
          to label %49 unwind label %61

49:                                               ; preds = %47
  store i32 %48, ptr %13, align 4, !tbaa !10
  %50 = load ptr, ptr %11, align 8, !tbaa !240
  %51 = load i32, ptr %13, align 4, !tbaa !10
  %52 = invoke noundef nonnull align 8 dereferenceable(8) ptr @_ZNK6vectorIP13obj_hashtableI9func_declELb0EjEixEj(ptr noundef nonnull align 8 dereferenceable(8) %50, i32 noundef %51)
          to label %53 unwind label %61

53:                                               ; preds = %49
  %54 = load ptr, ptr %52, align 8, !tbaa !242
  %55 = load i32, ptr %12, align 4, !tbaa !10
  %56 = invoke noundef nonnull align 8 dereferenceable(8) ptr @_ZN6vectorIP13obj_hashtableI9func_declELb0EjEixEj(ptr noundef nonnull align 8 dereferenceable(8) %0, i32 noundef %55)
          to label %57 unwind label %61

57:                                               ; preds = %53
  store ptr %54, ptr %56, align 8, !tbaa !242
  call void @llvm.lifetime.end.p0(i64 4, ptr %13) #3
  br label %58

58:                                               ; preds = %57
  %59 = load i32, ptr %12, align 4, !tbaa !10
  %60 = add i32 %59, 1
  store i32 %60, ptr %12, align 4, !tbaa !10
  br label %24, !llvm.loop !265

61:                                               ; preds = %53, %49, %47, %44, %40, %37
  %62 = landingpad { ptr, i32 }
          cleanup
  %63 = extractvalue { ptr, i32 } %62, 0
  store ptr %63, ptr %9, align 8
  %64 = extractvalue { ptr, i32 } %62, 1
  store i32 %64, ptr %10, align 4
  call void @llvm.lifetime.end.p0(i64 4, ptr %13) #3
  call void @llvm.lifetime.end.p0(i64 4, ptr %12) #3
  br label %67

65:                                               ; preds = %28
  store i1 true, ptr %8, align 1
  call void @llvm.lifetime.end.p0(i64 8, ptr %11) #3
  %66 = load i1, ptr %8, align 1
  br i1 %66, label %69, label %68

67:                                               ; preds = %61, %33
  call void @llvm.lifetime.end.p0(i64 8, ptr %11) #3
  br label %70

68:                                               ; preds = %65
  call void @_ZN6vectorIP13obj_hashtableI9func_declELb0EjED2Ev(ptr noundef nonnull align 8 dereferenceable(8) %0) #3
  br label %69

69:                                               ; preds = %68, %65
  call void @llvm.lifetime.end.p0(i64 4, ptr %7) #3
  ret void

70:                                               ; preds = %67, %29
  call void @_ZN6vectorIP13obj_hashtableI9func_declELb0EjED2Ev(ptr noundef nonnull align 8 dereferenceable(8) %0) #3
  call void @llvm.lifetime.end.p0(i64 4, ptr %7) #3
  br label %71

71:                                               ; preds = %70
  %72 = load ptr, ptr %9, align 8
  %73 = load i32, ptr %10, align 4
  %74 = insertvalue { ptr, i32 } poison, ptr %72, 0
  %75 = insertvalue { ptr, i32 } %74, i32 %73, 1
  resume { ptr, i32 } %75
}