; Function Attrs: mustprogress uwtable
define hidden void @_ZN7datalog14mk_synchronize16add_merged_declsER10ptr_vectorI3appE(ptr dead_on_unwind noalias writable sret(%class.ptr_vector.134) align 8 initializes((0, 8)) %0, ptr noundef nonnull readonly align 8 captures(none) dereferenceable(88) %1, ptr noundef nonnull readonly align 8 captures(none) dereferenceable(8) %2) local_unnamed_addr #3 align 2 personality ptr @__gxx_personality_v0 {
  %4 = load ptr, ptr %2, align 8, !tbaa !246
  %5 = icmp eq ptr %4, null
  br i1 %5, label %_ZNK6vectorIP13obj_hashtableI9func_declELb0EjE4sizeEv.exit.i.thread, label %_ZNK6vectorIP13obj_hashtableI9func_declELb0EjE4sizeEv.exit.i

_ZNK6vectorIP13obj_hashtableI9func_declELb0EjE4sizeEv.exit.i.thread: ; preds = %3
  store ptr null, ptr %0, align 8, !tbaa !233
  br label %._crit_edge

_ZNK6vectorIP13obj_hashtableI9func_declELb0EjE4sizeEv.exit.i: ; preds = %3
  %6 = getelementptr inbounds i8, ptr %4, i64 -4
  %7 = load i32, ptr %6, align 4, !tbaa !247
  store ptr null, ptr %0, align 8, !tbaa !233
  %.not.not.i = icmp eq i32 %7, 0
  br i1 %.not.not.i, label %._crit_edge, label %.preheader

thread-pre-split.i:                               ; preds = %_ZNK6vectorIP13obj_hashtableI9func_declELb0EjE8capacityEv.exit.thread.i
  %.pr.pre.i = load ptr, ptr %0, align 8, !tbaa !233
  br label %.preheader

.preheader:                                       ; preds = %_ZNK6vectorIP13obj_hashtableI9func_declELb0EjE4sizeEv.exit.i, %thread-pre-split.i
  %8 = phi ptr [ %.pr.pre.i, %thread-pre-split.i ], [ null, %_ZNK6vectorIP13obj_hashtableI9func_declELb0EjE4sizeEv.exit.i ]
  %9 = icmp eq ptr %8, null
  br i1 %9, label %_ZNK6vectorIP13obj_hashtableI9func_declELb0EjE8capacityEv.exit.thread.i, label %_ZNK6vectorIP13obj_hashtableI9func_declELb0EjE8capacityEv.exit.i

_ZNK6vectorIP13obj_hashtableI9func_declELb0EjE8capacityEv.exit.i: ; preds = %.preheader
  %10 = getelementptr inbounds i8, ptr %8, i64 -8
  %11 = load i32, ptr %10, align 4, !tbaa !247
  %12 = icmp ugt i32 %7, %11
  br i1 %12, label %_ZNK6vectorIP13obj_hashtableI9func_declELb0EjE8capacityEv.exit.thread.i, label %_ZN6vectorIP13obj_hashtableI9func_declELb0EjE6resizeEj.exit

_ZNK6vectorIP13obj_hashtableI9func_declELb0EjE8capacityEv.exit.thread.i: ; preds = %_ZNK6vectorIP13obj_hashtableI9func_declELb0EjE8capacityEv.exit.i, %.preheader
  invoke void @_ZN6vectorIP13obj_hashtableI9func_declELb0EjE13expand_vectorEv(ptr noundef nonnull align 8 dereferenceable(8) %0)
          to label %thread-pre-split.i unwind label %19

_ZN6vectorIP13obj_hashtableI9func_declELb0EjE6resizeEj.exit: ; preds = %_ZNK6vectorIP13obj_hashtableI9func_declELb0EjE8capacityEv.exit.i
  %13 = getelementptr inbounds i8, ptr %8, i64 -4
  store i32 %7, ptr %13, align 4, !tbaa !247
  %14 = zext i32 %7 to i64
  %15 = shl nuw nsw i64 %14, 3
  tail call void @llvm.memset.p0.i64(ptr nonnull align 8 %8, i8 0, i64 %15, i1 false), !tbaa !236
  %16 = getelementptr inbounds nuw i8, ptr %1, i64 56
  %17 = load ptr, ptr %16, align 8, !tbaa !220
  %18 = getelementptr inbounds nuw i8, ptr %17, i64 8
  %wide.trip.count = zext i32 %7 to i64
  br label %.lr.ph

19:                                               ; preds = %_ZNK6vectorIP13obj_hashtableI9func_declELb0EjE8capacityEv.exit.thread.i
  %20 = landingpad { ptr, i32 }
          cleanup
  br label %37

.lr.ph:                                           ; preds = %_ZN6vectorIP13obj_hashtableI9func_declELb0EjE6resizeEj.exit, %28
  %indvars.iv = phi i64 [ 0, %_ZN6vectorIP13obj_hashtableI9func_declELb0EjE6resizeEj.exit ], [ %indvars.iv.next, %28 ]
  %21 = load ptr, ptr %16, align 8, !tbaa !220
  %22 = load ptr, ptr %2, align 8, !tbaa !246
  %23 = getelementptr inbounds nuw ptr, ptr %22, i64 %indvars.iv
  %24 = load ptr, ptr %23, align 8, !tbaa !248
  %25 = getelementptr inbounds nuw i8, ptr %24, i64 16
  %26 = load ptr, ptr %25, align 8, !tbaa !228
  %27 = invoke noundef i32 @_ZNK7datalog15rule_stratifier19get_predicate_stratEP9func_decl(ptr noundef nonnull align 8 dereferenceable(120) %21, ptr noundef %26)
          to label %28 unwind label %35

28:                                               ; preds = %.lr.ph
  %29 = load ptr, ptr %18, align 8, !tbaa !233
  %30 = zext i32 %27 to i64
  %31 = getelementptr inbounds nuw ptr, ptr %29, i64 %30
  %32 = load ptr, ptr %31, align 8, !tbaa !236
  %33 = load ptr, ptr %0, align 8, !tbaa !233
  %34 = getelementptr inbounds nuw ptr, ptr %33, i64 %indvars.iv
  store ptr %32, ptr %34, align 8, !tbaa !236
  %indvars.iv.next = add nuw nsw i64 %indvars.iv, 1
  %exitcond.not = icmp eq i64 %indvars.iv.next, %wide.trip.count
  br i1 %exitcond.not, label %._crit_edge, label %.lr.ph, !llvm.loop !249

35:                                               ; preds = %.lr.ph
  %36 = landingpad { ptr, i32 }
          cleanup
  br label %37

._crit_edge:                                      ; preds = %28, %_ZNK6vectorIP13obj_hashtableI9func_declELb0EjE4sizeEv.exit.i, %_ZNK6vectorIP13obj_hashtableI9func_declELb0EjE4sizeEv.exit.i.thread
  ret void

37:                                               ; preds = %35, %19
  %.pn = phi { ptr, i32 } [ %36, %35 ], [ %20, %19 ]
  tail call void @_ZN6vectorIP13obj_hashtableI9func_declELb0EjED2Ev(ptr noundef nonnull align 8 dereferenceable(8) %0) #20
  resume { ptr, i32 } %.pn
}